target datalayout = "e-m:e-p270:32:32-p271:32:32-p272:64:64-i64:64-i128:128-f80:128-n8:16:32:64-S128"
target triple = "x86_64-pc-linux-gnu"

%"struct.SystemDictionaryShared::ArchiveInfo" = type { %class.RunTimeSharedDictionary, %class.RunTimeSharedDictionary, %class.LambdaProxyClassDictionary }
%class.RunTimeSharedDictionary = type { %class.OffsetCompactHashtable }
%class.OffsetCompactHashtable = type { %class.CompactHashtable }
%class.CompactHashtable = type { %class.SimpleCompactHashtable }
%class.SimpleCompactHashtable = type { ptr, i32, i32, ptr, ptr }
%class.LambdaProxyClassDictionary = type { %class.OffsetCompactHashtable.0 }
%class.OffsetCompactHashtable.0 = type { %class.CompactHashtable.1 }
%class.CompactHashtable.1 = type { %class.SimpleCompactHashtable }

@_ZN22SystemDictionaryShared15_static_archiveE = hidden global %"struct.SystemDictionaryShared::ArchiveInfo" zeroinitializer, align 8
@_ZN22SystemDictionaryShared16_dynamic_archiveE = hidden global %"struct.SystemDictionaryShared::ArchiveInfo" zeroinitializer, align 8
@.str.65 = private unnamed_addr constant [9 x i8] c"Dynamic \00", align 1
@.str.66 = private unnamed_addr constant [8 x i8] c"Static \00", align 1
@_ZN11FileMapInfo21_dynamic_archive_infoE = external global ptr, align 8

; Function Attrs: mustprogress nounwind uwtable
define linkonce_odr hidden noundef ptr @_ZN11FileMapInfo12dynamic_infoEv() #1 comdat align 2 {
  %1 = load ptr, ptr @_ZN11FileMapInfo21_dynamic_archive_infoE, align 8
  ret ptr %1
}

; Function Attrs: mustprogress nounwind uwtable
define linkonce_odr hidden noundef zeroext i1 @_ZN14DynamicArchive9is_mappedEv() #1 comdat align 2 {
  %1 = call noundef ptr @_ZN11FileMapInfo12dynamic_infoEv()
  %2 = icmp ne ptr %1, null
  ret i1 %2
}

; Function Attrs: mustprogress nounwind uwtable
define hidden void @_ZN22SystemDictionaryShared22print_table_statisticsEP12outputStream(ptr noundef %0) #1 align 2 {
  %2 = alloca ptr, align 8
  store ptr %0, ptr %2, align 8
  %3 = call noundef zeroext i1 @_ZN9CDSConfig16is_using_archiveEv()
  br i1 %3, label %4, label %10

4:                                                ; preds = %1
  %5 = load ptr, ptr %2, align 8
  call void @_ZN22SystemDictionaryShared11ArchiveInfo22print_table_statisticsEPKcP12outputStream(ptr noundef nonnull align 8 dereferenceable(96) @_ZN22SystemDictionaryShared15_static_archiveE, ptr noundef @.str.66, ptr noundef %5)
  %6 = call noundef zeroext i1 @_ZN14DynamicArchive9is_mappedEv()
  br i1 %6, label %7, label %9

7:                                                ; preds = %4
  %8 = load ptr, ptr %2, align 8
  call void @_ZN22SystemDictionaryShared11ArchiveInfo22print_table_statisticsEPKcP12outputStream(ptr noundef nonnull align 8 dereferenceable(96) @_ZN22SystemDictionaryShared16_dynamic_archiveE, ptr noundef @.str.65, ptr noundef %8)
  br label %9

9:                                                ; preds = %7, %4
  br label %10

10:                                               ; preds = %9, %1
  ret void
}