; Function Attrs: mustprogress nounwind uwtable
define hidden void @_ZN22SystemDictionaryShared22print_table_statisticsEP12outputStream(ptr noundef %0) local_unnamed_addr #0 align 2 {
  %2 = tail call noundef zeroext i1 @_ZN9CDSConfig16is_using_archiveEv() #18
  br i1 %2, label %3, label %6

3:                                                ; preds = %1
  tail call void @_ZN22SystemDictionaryShared11ArchiveInfo22print_table_statisticsEPKcP12outputStream(ptr noundef nonnull align 8 dereferenceable(96) @_ZN22SystemDictionaryShared15_static_archiveE, ptr noundef nonnull @.str.66, ptr noundef %0)
  %4 = load ptr, ptr @_ZN11FileMapInfo21_dynamic_archive_infoE, align 8
  %.not = icmp eq ptr %4, null
  br i1 %.not, label %6, label %5

5:                                                ; preds = %3
  tail call void @_ZN22SystemDictionaryShared11ArchiveInfo22print_table_statisticsEPKcP12outputStream(ptr noundef nonnull align 8 dereferenceable(96) @_ZN22SystemDictionaryShared16_dynamic_archiveE, ptr noundef nonnull @.str.65, ptr noundef %0)
  br label %6

6:                                                ; preds = %3, %5, %1
  ret void
}